target datalayout = "e-m:e-p270:32:32-p271:32:32-p272:64:64-i64:64-i128:128-f80:128-n8:16:32:64-S128"
target triple = "x86_64-unknown-linux-gnu"

%struct.File = type { ptr, i32, ptr, ptr, i32 }
%struct.Token = type { i32, ptr, i64, x86_fp80, ptr, i32, ptr, ptr, ptr, ptr, i32, i32, i8, i8, ptr, ptr }

@current_file = internal global ptr null, align 8
@at_bol = internal global i8 0, align 1
@has_space = internal global i8 0, align 1
@ty_ushort = external global ptr, align 8
@.str.82 = private unnamed_addr constant [24 x i8] c"unclosed string literal\00", align 1

; Function Attrs: nounwind uwtable
define internal ptr @new_token(i32 noundef %kind, ptr noundef %start, ptr noundef %end) #4 {
entry:
  %kind.addr = alloca i32, align 4
  %start.addr = alloca ptr, align 8
  %end.addr = alloca ptr, align 8
  %tok = alloca ptr, align 8
  store i32 %kind, ptr %kind.addr, align 4
  store ptr %start, ptr %start.addr, align 8
  store ptr %end, ptr %end.addr, align 8
  %call = call noalias ptr @calloc(i64 noundef 1, i64 noundef 128) #15
  store ptr %call, ptr %tok, align 8
  %0 = load i32, ptr %kind.addr, align 4
  %1 = load ptr, ptr %tok, align 8
  %kind1 = getelementptr inbounds %struct.Token, ptr %1, i32 0, i32 0
  store i32 %0, ptr %kind1, align 16
  %2 = load ptr, ptr %start.addr, align 8
  %3 = load ptr, ptr %tok, align 8
  %loc = getelementptr inbounds %struct.Token, ptr %3, i32 0, i32 4
  store ptr %2, ptr %loc, align 16
  %4 = load ptr, ptr %end.addr, align 8
  %5 = load ptr, ptr %start.addr, align 8
  %sub.ptr.lhs.cast = ptrtoint ptr %4 to i64
  %sub.ptr.rhs.cast = ptrtoint ptr %5 to i64
  %sub.ptr.sub = sub i64 %sub.ptr.lhs.cast, %sub.ptr.rhs.cast
  %conv = trunc i64 %sub.ptr.sub to i32
  %6 = load ptr, ptr %tok, align 8
  %len = getelementptr inbounds %struct.Token, ptr %6, i32 0, i32 5
  store i32 %conv, ptr %len, align 8
  %7 = load ptr, ptr @current_file, align 8
  %8 = load ptr, ptr %tok, align 8
  %file = getelementptr inbounds %struct.Token, ptr %8, i32 0, i32 8
  store ptr %7, ptr %file, align 16
  %9 = load ptr, ptr @current_file, align 8
  %display_name = getelementptr inbounds %struct.File, ptr %9, i32 0, i32 3
  %10 = load ptr, ptr %display_name, align 8
  %11 = load ptr, ptr %tok, align 8
  %filename = getelementptr inbounds %struct.Token, ptr %11, i32 0, i32 9
  store ptr %10, ptr %filename, align 8
  %12 = load i8, ptr @at_bol, align 1
  %tobool = trunc i8 %12 to i1
  %13 = load ptr, ptr %tok, align 8
  %at_bol = getelementptr inbounds %struct.Token, ptr %13, i32 0, i32 12
  %frombool = zext i1 %tobool to i8
  store i8 %frombool, ptr %at_bol, align 8
  %14 = load i8, ptr @has_space, align 1
  %tobool2 = trunc i8 %14 to i1
  %15 = load ptr, ptr %tok, align 8
  %has_space = getelementptr inbounds %struct.Token, ptr %15, i32 0, i32 13
  %frombool3 = zext i1 %tobool2 to i8
  store i8 %frombool3, ptr %has_space, align 1
  store i8 0, ptr @has_space, align 1
  store i8 0, ptr @at_bol, align 1
  %16 = load ptr, ptr %tok, align 8
  ret ptr %16
}

; Function Attrs: nounwind uwtable
define internal ptr @string_literal_end(ptr noundef %p) #4 {
entry:
  %p.addr = alloca ptr, align 8
  %start = alloca ptr, align 8
  store ptr %p, ptr %p.addr, align 8
  %0 = load ptr, ptr %p.addr, align 8
  store ptr %0, ptr %start, align 8
  br label %for.cond

for.cond:                                         ; preds = %for.inc, %entry
  %1 = load ptr, ptr %p.addr, align 8
  %2 = load i8, ptr %1, align 1
  %conv = sext i8 %2 to i32
  %cmp = icmp ne i32 %conv, 34
  br i1 %cmp, label %for.body, label %for.end

for.body:                                         ; preds = %for.cond
  %3 = load ptr, ptr %p.addr, align 8
  %4 = load i8, ptr %3, align 1
  %conv2 = sext i8 %4 to i32
  %cmp3 = icmp eq i32 %conv2, 10
  br i1 %cmp3, label %if.then, label %lor.lhs.false

lor.lhs.false:                                    ; preds = %for.body
  %5 = load ptr, ptr %p.addr, align 8
  %6 = load i8, ptr %5, align 1
  %conv5 = sext i8 %6 to i32
  %cmp6 = icmp eq i32 %conv5, 0
  br i1 %cmp6, label %if.then, label %if.end

if.then:                                          ; preds = %lor.lhs.false, %for.body
  %7 = load ptr, ptr %start, align 8
  call void (ptr, ptr, ...) @error_at(ptr noundef %7, ptr noundef @.str.82) #13
  unreachable

if.end:                                           ; preds = %lor.lhs.false
  %8 = load ptr, ptr %p.addr, align 8
  %9 = load i8, ptr %8, align 1
  %conv8 = sext i8 %9 to i32
  %cmp9 = icmp eq i32 %conv8, 92
  br i1 %cmp9, label %if.then11, label %if.end12

if.then11:                                        ; preds = %if.end
  %10 = load ptr, ptr %p.addr, align 8
  %incdec.ptr = getelementptr inbounds i8, ptr %10, i32 1
  store ptr %incdec.ptr, ptr %p.addr, align 8
  br label %if.end12

if.end12:                                         ; preds = %if.then11, %if.end
  br label %for.inc

for.inc:                                          ; preds = %if.end12
  %11 = load ptr, ptr %p.addr, align 8
  %incdec.ptr13 = getelementptr inbounds i8, ptr %11, i32 1
  store ptr %incdec.ptr13, ptr %p.addr, align 8
  br label %for.cond, !llvm.loop !25

for.end:                                          ; preds = %for.cond
  %12 = load ptr, ptr %p.addr, align 8
  ret ptr %12
}

; Function Attrs: nounwind uwtable
define internal ptr @read_utf16_string_literal(ptr noundef %start, ptr noundef %quote) #4 {
entry:
  %start.addr = alloca ptr, align 8
  %quote.addr = alloca ptr, align 8
  %end = alloca ptr, align 8
  %buf = alloca ptr, align 8
  %len = alloca i32, align 4
  %p = alloca ptr, align 8
  %c = alloca i32, align 4
  %tok = alloca ptr, align 8
  store ptr %start, ptr %start.addr, align 8
  store ptr %quote, ptr %quote.addr, align 8
  %0 = load ptr, ptr %quote.addr, align 8
  %add.ptr = getelementptr inbounds i8, ptr %0, i64 1
  %call = call ptr @string_literal_end(ptr noundef %add.ptr)
  store ptr %call, ptr %end, align 8
  %1 = load ptr, ptr %end, align 8
  %2 = load ptr, ptr %start.addr, align 8
  %sub.ptr.lhs.cast = ptrtoint ptr %1 to i64
  %sub.ptr.rhs.cast = ptrtoint ptr %2 to i64
  %sub.ptr.sub = sub i64 %sub.ptr.lhs.cast, %sub.ptr.rhs.cast
  %call1 = call noalias ptr @calloc(i64 noundef 2, i64 noundef %sub.ptr.sub) #15
  store ptr %call1, ptr %buf, align 8
  store i32 0, ptr %len, align 4
  %3 = load ptr, ptr %quote.addr, align 8
  %add.ptr2 = getelementptr inbounds i8, ptr %3, i64 1
  store ptr %add.ptr2, ptr %p, align 8
  br label %for.cond

for.cond:                                         ; preds = %if.end26, %if.then, %entry
  %4 = load ptr, ptr %p, align 8
  %5 = load ptr, ptr %end, align 8
  %cmp = icmp ult ptr %4, %5
  br i1 %cmp, label %for.body, label %for.end

for.body:                                         ; preds = %for.cond
  %6 = load ptr, ptr %p, align 8
  %7 = load i8, ptr %6, align 1
  %conv = sext i8 %7 to i32
  %cmp3 = icmp eq i32 %conv, 92
  br i1 %cmp3, label %if.then, label %if.end

if.then:                                          ; preds = %for.body
  %8 = load ptr, ptr %p, align 8
  %add.ptr5 = getelementptr inbounds i8, ptr %8, i64 1
  %call6 = call i32 @read_escaped_char(ptr noundef %p, ptr noundef %add.ptr5)
  %conv7 = trunc i32 %call6 to i16
  %9 = load ptr, ptr %buf, align 8
  %10 = load i32, ptr %len, align 4
  %inc = add nsw i32 %10, 1
  store i32 %inc, ptr %len, align 4
  %idxprom = sext i32 %10 to i64
  %arrayidx = getelementptr inbounds i16, ptr %9, i64 %idxprom
  store i16 %conv7, ptr %arrayidx, align 2
  br label %for.cond, !llvm.loop !13

if.end:                                           ; preds = %for.body
  %11 = load ptr, ptr %p, align 8
  %call8 = call i32 @decode_utf8(ptr noundef %p, ptr noundef %11)
  store i32 %call8, ptr %c, align 4
  %12 = load i32, ptr %c, align 4
  %cmp9 = icmp ult i32 %12, 65536
  br i1 %cmp9, label %if.then11, label %if.else

if.then11:                                        ; preds = %if.end
  %13 = load i32, ptr %c, align 4
  %conv12 = trunc i32 %13 to i16
  %14 = load ptr, ptr %buf, align 8
  %15 = load i32, ptr %len, align 4
  %inc13 = add nsw i32 %15, 1
  store i32 %inc13, ptr %len, align 4
  %idxprom14 = sext i32 %15 to i64
  %arrayidx15 = getelementptr inbounds i16, ptr %14, i64 %idxprom14
  store i16 %conv12, ptr %arrayidx15, align 2
  br label %if.end26

if.else:                                          ; preds = %if.end
  %16 = load i32, ptr %c, align 4
  %sub = sub i32 %16, 65536
  store i32 %sub, ptr %c, align 4
  %17 = load i32, ptr %c, align 4
  %shr = lshr i32 %17, 10
  %and = and i32 %shr, 1023
  %add = add i32 55296, %and
  %conv16 = trunc i32 %add to i16
  %18 = load ptr, ptr %buf, align 8
  %19 = load i32, ptr %len, align 4
  %inc17 = add nsw i32 %19, 1
  store i32 %inc17, ptr %len, align 4
  %idxprom18 = sext i32 %19 to i64
  %arrayidx19 = getelementptr inbounds i16, ptr %18, i64 %idxprom18
  store i16 %conv16, ptr %arrayidx19, align 2
  %20 = load i32, ptr %c, align 4
  %and20 = and i32 %20, 1023
  %add21 = add i32 56320, %and20
  %conv22 = trunc i32 %add21 to i16
  %21 = load ptr, ptr %buf, align 8
  %22 = load i32, ptr %len, align 4
  %inc23 = add nsw i32 %22, 1
  store i32 %inc23, ptr %len, align 4
  %idxprom24 = sext i32 %22 to i64
  %arrayidx25 = getelementptr inbounds i16, ptr %21, i64 %idxprom24
  store i16 %conv22, ptr %arrayidx25, align 2
  br label %if.end26

if.end26:                                         ; preds = %if.else, %if.then11
  br label %for.cond, !llvm.loop !13

for.end:                                          ; preds = %for.cond
  %23 = load ptr, ptr %start.addr, align 8
  %24 = load ptr, ptr %end, align 8
  %add.ptr27 = getelementptr inbounds i8, ptr %24, i64 1
  %call28 = call ptr @new_token(i32 noundef 3, ptr noundef %23, ptr noundef %add.ptr27)
  store ptr %call28, ptr %tok, align 8
  %25 = load ptr, ptr @ty_ushort, align 8
  %26 = load i32, ptr %len, align 4
  %add29 = add nsw i32 %26, 1
  %call30 = call ptr @array_of(ptr noundef %25, i32 noundef %add29)
  %27 = load ptr, ptr %tok, align 8
  %ty = getelementptr inbounds %struct.Token, ptr %27, i32 0, i32 6
  store ptr %call30, ptr %ty, align 16
  %28 = load ptr, ptr %buf, align 8
  %29 = load ptr, ptr %tok, align 8
  %str = getelementptr inbounds %struct.Token, ptr %29, i32 0, i32 7
  store ptr %28, ptr %str, align 8
  %30 = load ptr, ptr %tok, align 8
  ret ptr %30
}