; Function Attrs: nounwind uwtable
define internal fastcc noalias noundef ptr @read_utf16_string_literal(ptr noundef %start, ptr noundef %quote) unnamed_addr #4 {
entry:
  %p = alloca ptr, align 8
  %add.ptr.ptr = getelementptr inbounds i8, ptr %quote, i64 1
  br label %for.cond.i

for.cond.i:                                       ; preds = %for.inc.i, %entry
  %p.addr.0.i.idx = phi i64 [ 1, %entry ], [ %p.addr.1.i.add, %for.inc.i ]
  %p.addr.0.i.ptr = getelementptr inbounds i8, ptr %quote, i64 %p.addr.0.i.idx
  %0 = load i8, ptr %p.addr.0.i.ptr, align 1
  switch i8 %0, label %for.inc.i [
    i8 34, label %string_literal_end.exit
    i8 10, label %if.then.i
    i8 0, label %if.then.i
    i8 92, label %if.then11.i
  ]

if.then.i:                                        ; preds = %for.cond.i, %for.cond.i
  tail call void (ptr, ptr, ...) @error_at(ptr noundef nonnull %add.ptr.ptr, ptr noundef nonnull @.str.82) #26
  unreachable

if.then11.i:                                      ; preds = %for.cond.i
  %p.addr.0.i.add = add nsw i64 %p.addr.0.i.idx, 1
  br label %for.inc.i

for.inc.i:                                        ; preds = %if.then11.i, %for.cond.i
  %p.addr.1.i.idx = phi i64 [ %p.addr.0.i.add, %if.then11.i ], [ %p.addr.0.i.idx, %for.cond.i ]
  %p.addr.1.i.add = add nsw i64 %p.addr.1.i.idx, 1
  br label %for.cond.i, !llvm.loop !13

string_literal_end.exit:                          ; preds = %for.cond.i
  %p.addr.0.i.ptr.le = getelementptr inbounds i8, ptr %quote, i64 %p.addr.0.i.idx
  %sub.ptr.lhs.cast = ptrtoint ptr %p.addr.0.i.ptr.le to i64
  %sub.ptr.rhs.cast = ptrtoint ptr %start to i64
  %sub.ptr.sub = sub i64 %sub.ptr.lhs.cast, %sub.ptr.rhs.cast
  %call1 = tail call noalias ptr @calloc(i64 noundef 2, i64 noundef %sub.ptr.sub) #29
  store ptr %add.ptr.ptr, ptr %p, align 8
  %cmp20 = icmp sgt i64 %p.addr.0.i.idx, 1
  br i1 %cmp20, label %for.body, label %for.end

for.body:                                         ; preds = %string_literal_end.exit, %for.cond.backedge
  %1 = phi ptr [ %3, %for.cond.backedge ], [ %add.ptr.ptr, %string_literal_end.exit ]
  %len.021 = phi i32 [ %len.0.be, %for.cond.backedge ], [ 0, %string_literal_end.exit ]
  %2 = load i8, ptr %1, align 1
  %cmp3 = icmp eq i8 %2, 92
  br i1 %cmp3, label %if.then, label %if.end

if.then:                                          ; preds = %for.body
  %add.ptr5 = getelementptr inbounds i8, ptr %1, i64 1
  %call6 = call fastcc i32 @read_escaped_char(ptr noundef nonnull %p, ptr noundef nonnull %add.ptr5)
  %conv7 = trunc i32 %call6 to i16
  %inc = add nsw i32 %len.021, 1
  %idxprom = sext i32 %len.021 to i64
  %arrayidx = getelementptr inbounds i16, ptr %call1, i64 %idxprom
  store i16 %conv7, ptr %arrayidx, align 2
  br label %for.cond.backedge

for.cond.backedge:                                ; preds = %if.then11, %if.else, %if.then
  %len.0.be = phi i32 [ %inc, %if.then ], [ %inc13, %if.then11 ], [ %inc23, %if.else ]
  %3 = load ptr, ptr %p, align 8
  %cmp = icmp ult ptr %3, %p.addr.0.i.ptr.le
  br i1 %cmp, label %for.body, label %for.end.loopexit, !llvm.loop !14

if.end:                                           ; preds = %for.body
  %call8 = call i32 @decode_utf8(ptr noundef nonnull %p, ptr noundef nonnull %1) #25
  %cmp9 = icmp ult i32 %call8, 65536
  br i1 %cmp9, label %if.then11, label %if.else

if.then11:                                        ; preds = %if.end
  %conv12 = trunc i32 %call8 to i16
  %inc13 = add nsw i32 %len.021, 1
  %idxprom14 = sext i32 %len.021 to i64
  %arrayidx15 = getelementptr inbounds i16, ptr %call1, i64 %idxprom14
  store i16 %conv12, ptr %arrayidx15, align 2
  br label %for.cond.backedge

if.else:                                          ; preds = %if.end
  %sub = add i32 %call8, 983040
  %shr = lshr i32 %sub, 10
  %4 = trunc i32 %shr to i16
  %5 = and i16 %4, 1023
  %conv16 = or disjoint i16 %5, -10240
  %idxprom18 = sext i32 %len.021 to i64
  %arrayidx19 = getelementptr inbounds i16, ptr %call1, i64 %idxprom18
  store i16 %conv16, ptr %arrayidx19, align 2
  %6 = trunc i32 %call8 to i16
  %7 = and i16 %6, 1023
  %conv22 = or disjoint i16 %7, -9216
  %inc23 = add nsw i32 %len.021, 2
  %arrayidx25 = getelementptr i16, ptr %arrayidx19, i64 1
  store i16 %conv22, ptr %arrayidx25, align 2
  br label %for.cond.backedge

for.end.loopexit:                                 ; preds = %for.cond.backedge
  %8 = add nsw i32 %len.0.be, 1
  br label %for.end

for.end:                                          ; preds = %for.end.loopexit, %string_literal_end.exit
  %len.0.lcssa = phi i32 [ 1, %string_literal_end.exit ], [ %8, %for.end.loopexit ]
  %add.ptr27 = getelementptr inbounds i8, ptr %p.addr.0.i.ptr.le, i64 1
  %call.i = call noalias dereferenceable_or_null(128) ptr @calloc(i64 noundef 1, i64 noundef 128) #29
  store i32 3, ptr %call.i, align 16
  %loc.i = getelementptr inbounds %struct.Token, ptr %call.i, i64 0, i32 4
  store ptr %start, ptr %loc.i, align 16
  %sub.ptr.lhs.cast.i = ptrtoint ptr %add.ptr27 to i64
  %sub.ptr.sub.i = sub i64 %sub.ptr.lhs.cast.i, %sub.ptr.rhs.cast
  %conv.i = trunc i64 %sub.ptr.sub.i to i32
  %len.i = getelementptr inbounds %struct.Token, ptr %call.i, i64 0, i32 5
  store i32 %conv.i, ptr %len.i, align 8
  %9 = load ptr, ptr @current_file, align 8
  %file.i = getelementptr inbounds %struct.Token, ptr %call.i, i64 0, i32 8
  store ptr %9, ptr %file.i, align 16
  %display_name.i = getelementptr inbounds %struct.File, ptr %9, i64 0, i32 3
  %10 = load ptr, ptr %display_name.i, align 8
  %filename.i = getelementptr inbounds %struct.Token, ptr %call.i, i64 0, i32 9
  store ptr %10, ptr %filename.i, align 8
  %.b10.i = load i1, ptr @at_bol, align 1
  %at_bol.i = getelementptr inbounds %struct.Token, ptr %call.i, i64 0, i32 12
  %frombool.i = zext i1 %.b10.i to i8
  store i8 %frombool.i, ptr %at_bol.i, align 8
  %.b911.i = load i1, ptr @has_space, align 1
  %has_space.i = getelementptr inbounds %struct.Token, ptr %call.i, i64 0, i32 13
  %frombool3.i = zext i1 %.b911.i to i8
  store i8 %frombool3.i, ptr %has_space.i, align 1
  store i1 false, ptr @has_space, align 1
  store i1 false, ptr @at_bol, align 1
  %11 = load ptr, ptr @ty_ushort, align 8
  %call30 = call ptr @array_of(ptr noundef %11, i32 noundef %len.0.lcssa) #25
  %ty = getelementptr inbounds %struct.Token, ptr %call.i, i64 0, i32 6
  store ptr %call30, ptr %ty, align 16
  %str = getelementptr inbounds %struct.Token, ptr %call.i, i64 0, i32 7
  store ptr %call1, ptr %str, align 8
  ret ptr %call.i
}